target datalayout = "e-m:e-p270:32:32-p271:32:32-p272:64:64-i64:64-i128:128-f80:128-n8:16:32:64-S128"
target triple = "x86_64-unknown-linux-gnu"

%class.btCompoundCompoundCollisionAlgorithm = type { %class.btCompoundCollisionAlgorithm, ptr, %class.btAlignedObjectArray.8, i32, i32 }
%class.btCompoundCollisionAlgorithm = type { %class.btActivatingCollisionAlgorithm, %class.btAlignedObjectArray, %class.btAlignedObjectArray.0, %class.btAlignedObjectArray.4, i8, ptr, i8, i32 }
%class.btActivatingCollisionAlgorithm = type { %class.btCollisionAlgorithm }
%class.btCollisionAlgorithm = type { ptr, ptr }
%class.btAlignedObjectArray = type <{ %class.btAlignedAllocator, [3 x i8], i32, i32, [4 x i8], ptr, i8, [7 x i8] }>
%class.btAlignedAllocator = type { i8 }
%class.btAlignedObjectArray.0 = type <{ %class.btAlignedAllocator.1, [3 x i8], i32, i32, [4 x i8], ptr, i8, [7 x i8] }>
%class.btAlignedAllocator.1 = type { i8 }
%class.btAlignedObjectArray.4 = type <{ %class.btAlignedAllocator.5, [3 x i8], i32, i32, [4 x i8], ptr, i8, [7 x i8] }>
%class.btAlignedAllocator.5 = type { i8 }
%class.btAlignedObjectArray.8 = type <{ %class.btAlignedAllocator.9, [3 x i8], i32, i32, [4 x i8], ptr, i8, [7 x i8] }>
%class.btAlignedAllocator.9 = type { i8 }
%struct.btCollisionObjectWrapper = type { ptr, ptr, ptr, ptr, ptr, i32, i32 }
%class.btCompoundShape = type { %class.btCollisionShape, %class.btAlignedObjectArray.16, %class.btVector3, %class.btVector3, ptr, i32, float, %class.btVector3 }
%class.btCollisionShape = type { ptr, i32, ptr, i32, i32 }
%class.btAlignedObjectArray.16 = type <{ %class.btAlignedAllocator.17, [3 x i8], i32, i32, [4 x i8], ptr, i8, [7 x i8] }>
%class.btAlignedAllocator.17 = type { i8 }
%class.btVector3 = type { [4 x float] }

; Function Attrs: mustprogress nounwind uwtable
define linkonce_odr dso_local void @_ZN20btAlignedObjectArrayI12btSimplePairE4initEv(ptr noundef nonnull align 8 dereferenceable(25) %this) #1 comdat align 2 {
entry:
  %this.addr = alloca ptr, align 8
  store ptr %this, ptr %this.addr, align 8
  %this1 = load ptr, ptr %this.addr, align 8
  %m_ownsMemory = getelementptr inbounds %class.btAlignedObjectArray.8, ptr %this1, i32 0, i32 6
  store i8 1, ptr %m_ownsMemory, align 8
  %m_data = getelementptr inbounds %class.btAlignedObjectArray.8, ptr %this1, i32 0, i32 5
  store ptr null, ptr %m_data, align 8
  %m_size = getelementptr inbounds %class.btAlignedObjectArray.8, ptr %this1, i32 0, i32 2
  store i32 0, ptr %m_size, align 4
  %m_capacity = getelementptr inbounds %class.btAlignedObjectArray.8, ptr %this1, i32 0, i32 3
  store i32 0, ptr %m_capacity, align 8
  ret void
}

; Function Attrs: mustprogress nounwind uwtable
define linkonce_odr dso_local void @_ZN18btAlignedAllocatorI12btSimplePairLj16EEC2Ev(ptr noundef nonnull align 1 dereferenceable(1) %this) unnamed_addr #1 comdat align 2 {
entry:
  %this.addr = alloca ptr, align 8
  store ptr %this, ptr %this.addr, align 8
  ret void
}

; Function Attrs: mustprogress nounwind uwtable
define linkonce_odr dso_local noundef i32 @_ZNK15btCompoundShape17getUpdateRevisionEv(ptr noundef nonnull align 8 dereferenceable(128) %this) #1 comdat align 2 {
entry:
  %this.addr = alloca ptr, align 8
  store ptr %this, ptr %this.addr, align 8
  %this1 = load ptr, ptr %this.addr, align 8
  %m_updateRevision = getelementptr inbounds %class.btCompoundShape, ptr %this1, i32 0, i32 5
  %0 = load i32, ptr %m_updateRevision, align 8
  ret i32 %0
}

; Function Attrs: mustprogress nounwind uwtable
define linkonce_odr dso_local noundef ptr @_ZNK24btCollisionObjectWrapper17getCollisionShapeEv(ptr noundef nonnull align 8 dereferenceable(48) %this) #1 comdat align 2 {
entry:
  %this.addr = alloca ptr, align 8
  store ptr %this, ptr %this.addr, align 8
  %this1 = load ptr, ptr %this.addr, align 8
  %m_shape = getelementptr inbounds %struct.btCollisionObjectWrapper, ptr %this1, i32 0, i32 1
  %0 = load ptr, ptr %m_shape, align 8
  ret ptr %0
}

; Function Attrs: mustprogress uwtable
define linkonce_odr dso_local void @_ZN20btAlignedObjectArrayI12btSimplePairEC2Ev(ptr noundef nonnull align 8 dereferenceable(25) %this) unnamed_addr #2 comdat align 2 {
entry:
  %this.addr = alloca ptr, align 8
  store ptr %this, ptr %this.addr, align 8
  %this1 = load ptr, ptr %this.addr, align 8
  %m_allocator = getelementptr inbounds %class.btAlignedObjectArray.8, ptr %this1, i32 0, i32 0
  call void @_ZN18btAlignedAllocatorI12btSimplePairLj16EEC2Ev(ptr noundef nonnull align 1 dereferenceable(1) %m_allocator)
  call void @_ZN20btAlignedObjectArrayI12btSimplePairE4initEv(ptr noundef nonnull align 8 dereferenceable(25) %this1)
  ret void
}

; Function Attrs: mustprogress uwtable
define dso_local void @_ZN36btCompoundCompoundCollisionAlgorithmC2ERK36btCollisionAlgorithmConstructionInfoPK24btCollisionObjectWrapperS5_b(ptr noundef nonnull align 8 dereferenceable(184) %this, ptr noundef nonnull align 8 dereferenceable(16) %ci, ptr noundef %body0Wrap, ptr noundef %body1Wrap, i1 noundef zeroext %isSwapped) unnamed_addr #2 align 2 personality ptr @__gxx_personality_v0 {
entry:
  %this.addr = alloca ptr, align 8
  %ci.addr = alloca ptr, align 8
  %body0Wrap.addr = alloca ptr, align 8
  %body1Wrap.addr = alloca ptr, align 8
  %isSwapped.addr = alloca i8, align 1
  %exn.slot = alloca ptr, align 8
  %ehselector.slot = alloca i32, align 4
  %ptr = alloca ptr, align 8
  %col0ObjWrap = alloca ptr, align 8
  %col1ObjWrap = alloca ptr, align 8
  %compoundShape0 = alloca ptr, align 8
  %compoundShape1 = alloca ptr, align 8
  store ptr %this, ptr %this.addr, align 8
  store ptr %ci, ptr %ci.addr, align 8
  store ptr %body0Wrap, ptr %body0Wrap.addr, align 8
  store ptr %body1Wrap, ptr %body1Wrap.addr, align 8
  %frombool = zext i1 %isSwapped to i8
  store i8 %frombool, ptr %isSwapped.addr, align 1
  %this1 = load ptr, ptr %this.addr, align 8
  %0 = load ptr, ptr %ci.addr, align 8
  %1 = load ptr, ptr %body0Wrap.addr, align 8
  %2 = load ptr, ptr %body1Wrap.addr, align 8
  %3 = load i8, ptr %isSwapped.addr, align 1
  %tobool = trunc i8 %3 to i1
  call void @_ZN28btCompoundCollisionAlgorithmC2ERK36btCollisionAlgorithmConstructionInfoPK24btCollisionObjectWrapperS5_b(ptr noundef nonnull align 8 dereferenceable(136) %this1, ptr noundef nonnull align 8 dereferenceable(16) %0, ptr noundef %1, ptr noundef %2, i1 noundef zeroext %tobool)
  store ptr getelementptr inbounds ({ [7 x ptr] }, ptr @_ZTV36btCompoundCompoundCollisionAlgorithm, i32 0, i32 0, i32 2), ptr %this1, align 8
  %m_removePairs = getelementptr inbounds %class.btCompoundCompoundCollisionAlgorithm, ptr %this1, i32 0, i32 2
  invoke void @_ZN20btAlignedObjectArrayI12btSimplePairEC2Ev(ptr noundef nonnull align 8 dereferenceable(25) %m_removePairs)
          to label %invoke.cont unwind label %lpad

invoke.cont:                                      ; preds = %entry
  %call = invoke noundef ptr @_Z22btAlignedAllocInternalmi(i64 noundef 104, i32 noundef 16)
          to label %invoke.cont3 unwind label %lpad2

invoke.cont3:                                     ; preds = %invoke.cont
  store ptr %call, ptr %ptr, align 8
  %4 = load ptr, ptr %ptr, align 8
  invoke void @_ZN23btHashedSimplePairCacheC1Ev(ptr noundef nonnull align 8 dereferenceable(104) %4)
          to label %invoke.cont4 unwind label %lpad2

invoke.cont4:                                     ; preds = %invoke.cont3
  %m_childCollisionAlgorithmCache = getelementptr inbounds %class.btCompoundCompoundCollisionAlgorithm, ptr %this1, i32 0, i32 1
  store ptr %4, ptr %m_childCollisionAlgorithmCache, align 8
  %5 = load ptr, ptr %body0Wrap.addr, align 8
  store ptr %5, ptr %col0ObjWrap, align 8
  %6 = load ptr, ptr %body1Wrap.addr, align 8
  store ptr %6, ptr %col1ObjWrap, align 8
  %7 = load ptr, ptr %col0ObjWrap, align 8
  %call6 = invoke noundef ptr @_ZNK24btCollisionObjectWrapper17getCollisionShapeEv(ptr noundef nonnull align 8 dereferenceable(48) %7)
          to label %invoke.cont5 unwind label %lpad2

invoke.cont5:                                     ; preds = %invoke.cont4
  store ptr %call6, ptr %compoundShape0, align 8
  %8 = load ptr, ptr %compoundShape0, align 8
  %call8 = invoke noundef i32 @_ZNK15btCompoundShape17getUpdateRevisionEv(ptr noundef nonnull align 8 dereferenceable(128) %8)
          to label %invoke.cont7 unwind label %lpad2

invoke.cont7:                                     ; preds = %invoke.cont5
  %m_compoundShapeRevision0 = getelementptr inbounds %class.btCompoundCompoundCollisionAlgorithm, ptr %this1, i32 0, i32 3
  store i32 %call8, ptr %m_compoundShapeRevision0, align 8
  %9 = load ptr, ptr %col1ObjWrap, align 8
  %call10 = invoke noundef ptr @_ZNK24btCollisionObjectWrapper17getCollisionShapeEv(ptr noundef nonnull align 8 dereferenceable(48) %9)
          to label %invoke.cont9 unwind label %lpad2

invoke.cont9:                                     ; preds = %invoke.cont7
  store ptr %call10, ptr %compoundShape1, align 8
  %10 = load ptr, ptr %compoundShape1, align 8
  %call12 = invoke noundef i32 @_ZNK15btCompoundShape17getUpdateRevisionEv(ptr noundef nonnull align 8 dereferenceable(128) %10)
          to label %invoke.cont11 unwind label %lpad2

invoke.cont11:                                    ; preds = %invoke.cont9
  %m_compoundShapeRevision1 = getelementptr inbounds %class.btCompoundCompoundCollisionAlgorithm, ptr %this1, i32 0, i32 4
  store i32 %call12, ptr %m_compoundShapeRevision1, align 4
  ret void

lpad:                                             ; preds = %entry
  %11 = landingpad { ptr, i32 }
          cleanup
  %12 = extractvalue { ptr, i32 } %11, 0
  store ptr %12, ptr %exn.slot, align 8
  %13 = extractvalue { ptr, i32 } %11, 1
  store i32 %13, ptr %ehselector.slot, align 4
  br label %ehcleanup

lpad2:                                            ; preds = %invoke.cont9, %invoke.cont7, %invoke.cont5, %invoke.cont4, %invoke.cont3, %invoke.cont
  %14 = landingpad { ptr, i32 }
          cleanup
  %15 = extractvalue { ptr, i32 } %14, 0
  store ptr %15, ptr %exn.slot, align 8
  %16 = extractvalue { ptr, i32 } %14, 1
  store i32 %16, ptr %ehselector.slot, align 4
  call void @_ZN20btAlignedObjectArrayI12btSimplePairED2Ev(ptr noundef nonnull align 8 dereferenceable(25) %m_removePairs) #10
  br label %ehcleanup

ehcleanup:                                        ; preds = %lpad2, %lpad
  call void @_ZN28btCompoundCollisionAlgorithmD2Ev(ptr noundef nonnull align 8 dereferenceable(136) %this1) #10
  br label %eh.resume

eh.resume:                                        ; preds = %ehcleanup
  %exn = load ptr, ptr %exn.slot, align 8
  %sel = load i32, ptr %ehselector.slot, align 4
  %lpad.val = insertvalue { ptr, i32 } poison, ptr %exn, 0
  %lpad.val13 = insertvalue { ptr, i32 } %lpad.val, i32 %sel, 1
  resume { ptr, i32 } %lpad.val13
}