; Function Attrs: mustprogress uwtable
define dso_local void @_ZN36btCompoundCompoundCollisionAlgorithmC2ERK36btCollisionAlgorithmConstructionInfoPK24btCollisionObjectWrapperS5_b(ptr noundef nonnull align 8 dereferenceable(184) %this, ptr noundef nonnull align 8 dereferenceable(16) %ci, ptr noundef %body0Wrap, ptr noundef %body1Wrap, i1 noundef zeroext %isSwapped) unnamed_addr #0 align 2 personality ptr @__gxx_personality_v0 {
invoke.cont:
  tail call void @_ZN28btCompoundCollisionAlgorithmC2ERK36btCollisionAlgorithmConstructionInfoPK24btCollisionObjectWrapperS5_b(ptr noundef nonnull align 8 dereferenceable(136) %this, ptr noundef nonnull align 8 dereferenceable(16) %ci, ptr noundef %body0Wrap, ptr noundef %body1Wrap, i1 noundef zeroext %isSwapped)
  store ptr getelementptr inbounds ({ [7 x ptr] }, ptr @_ZTV36btCompoundCompoundCollisionAlgorithm, i64 0, i32 0, i64 2), ptr %this, align 8
  %m_ownsMemory.i.i = getelementptr inbounds i8, ptr %this, i64 168
  store i8 1, ptr %m_ownsMemory.i.i, align 8
  %m_data.i.i = getelementptr inbounds i8, ptr %this, i64 160
  store ptr null, ptr %m_data.i.i, align 8
  %m_size.i.i = getelementptr inbounds i8, ptr %this, i64 148
  store i32 0, ptr %m_size.i.i, align 4
  %m_capacity.i.i = getelementptr inbounds i8, ptr %this, i64 152
  store i32 0, ptr %m_capacity.i.i, align 8
  %call = invoke noundef ptr @_Z22btAlignedAllocInternalmi(i64 noundef 104, i32 noundef 16)
          to label %invoke.cont3 unwind label %lpad2

invoke.cont3:                                     ; preds = %invoke.cont
  invoke void @_ZN23btHashedSimplePairCacheC1Ev(ptr noundef nonnull align 8 dereferenceable(104) %call)
          to label %invoke.cont4 unwind label %lpad2

invoke.cont4:                                     ; preds = %invoke.cont3
  %m_childCollisionAlgorithmCache = getelementptr inbounds i8, ptr %this, i64 136
  store ptr %call, ptr %m_childCollisionAlgorithmCache, align 8
  %m_shape.i = getelementptr inbounds i8, ptr %body0Wrap, i64 8
  %0 = load ptr, ptr %m_shape.i, align 8
  %m_updateRevision.i = getelementptr inbounds i8, ptr %0, i64 104
  %1 = load i32, ptr %m_updateRevision.i, align 8
  %m_compoundShapeRevision0 = getelementptr inbounds i8, ptr %this, i64 176
  store i32 %1, ptr %m_compoundShapeRevision0, align 8
  %m_shape.i4 = getelementptr inbounds i8, ptr %body1Wrap, i64 8
  %2 = load ptr, ptr %m_shape.i4, align 8
  %m_updateRevision.i5 = getelementptr inbounds i8, ptr %2, i64 104
  %3 = load i32, ptr %m_updateRevision.i5, align 8
  %m_compoundShapeRevision1 = getelementptr inbounds i8, ptr %this, i64 180
  store i32 %3, ptr %m_compoundShapeRevision1, align 4
  ret void

lpad2:                                            ; preds = %invoke.cont3, %invoke.cont
  %4 = landingpad { ptr, i32 }
          cleanup
  %m_removePairs = getelementptr inbounds i8, ptr %this, i64 144
  tail call void @_ZN20btAlignedObjectArrayI12btSimplePairED2Ev(ptr noundef nonnull align 8 dereferenceable(25) %m_removePairs) #13
  tail call void @_ZN28btCompoundCollisionAlgorithmD2Ev(ptr noundef nonnull align 8 dereferenceable(136) %this) #13
  resume { ptr, i32 } %4
}